target datalayout = "e-m:e-p270:32:32-p271:32:32-p272:64:64-i64:64-i128:128-f80:128-n8:16:32:64-S128"
target triple = "x86_64-pc-linux-gnu"

; Function Attrs: mustprogress nounwind uwtable
define hidden void @_Z3shljPKjjjPj(i32 noundef %0, ptr noundef %1, i32 noundef %2, i32 noundef %3, ptr noundef %4) #4 {
  %6 = alloca i32, align 4
  %7 = alloca ptr, align 8
  %8 = alloca i32, align 4
  %9 = alloca i32, align 4
  %10 = alloca ptr, align 8
  %11 = alloca i32, align 4
  %12 = alloca i32, align 4
  %13 = alloca i32, align 4
  %14 = alloca i32, align 4
  %15 = alloca i32, align 4
  %16 = alloca i32, align 4
  %17 = alloca i32, align 4
  %18 = alloca i32, align 4
  %19 = alloca i32, align 4
  %20 = alloca i32, align 4
  %21 = alloca i32, align 4
  %22 = alloca i32, align 4
  %23 = alloca i32, align 4
  %24 = alloca i32, align 4
  store i32 %0, ptr %6, align 4, !tbaa !3
  store ptr %1, ptr %7, align 8, !tbaa !7
  store i32 %2, ptr %8, align 4, !tbaa !3
  store i32 %3, ptr %9, align 4, !tbaa !3
  store ptr %4, ptr %10, align 8, !tbaa !7
  call void @llvm.lifetime.start.p0(i64 4, ptr %11) #3
  %25 = load i32, ptr %8, align 4, !tbaa !3
  %26 = zext i32 %25 to i64
  %27 = udiv i64 %26, 32
  %28 = trunc i64 %27 to i32
  store i32 %28, ptr %11, align 4, !tbaa !3
  call void @llvm.lifetime.start.p0(i64 4, ptr %12) #3
  %29 = load i32, ptr %8, align 4, !tbaa !3
  %30 = zext i32 %29 to i64
  %31 = urem i64 %30, 32
  %32 = trunc i64 %31 to i32
  store i32 %32, ptr %12, align 4, !tbaa !3
  %33 = load i32, ptr %11, align 4, !tbaa !3
  %34 = icmp ugt i32 %33, 0
  br i1 %34, label %35, label %150

35:                                               ; preds = %5
  call void @llvm.lifetime.start.p0(i64 4, ptr %13) #3
  %36 = load i32, ptr %6, align 4, !tbaa !3
  store i32 %36, ptr %13, align 4, !tbaa !3
  call void @llvm.lifetime.start.p0(i64 4, ptr %14) #3
  %37 = load i32, ptr %6, align 4, !tbaa !3
  %38 = load i32, ptr %11, align 4, !tbaa !3
  %39 = add i32 %37, %38
  store i32 %39, ptr %14, align 4, !tbaa !3
  %40 = load i32, ptr %14, align 4, !tbaa !3
  %41 = load i32, ptr %9, align 4, !tbaa !3
  %42 = icmp ugt i32 %40, %41
  br i1 %42, label %43, label %58

43:                                               ; preds = %35
  %44 = load i32, ptr %13, align 4, !tbaa !3
  %45 = load i32, ptr %14, align 4, !tbaa !3
  %46 = load i32, ptr %9, align 4, !tbaa !3
  %47 = sub i32 %45, %46
  %48 = icmp uge i32 %44, %47
  br i1 %48, label %49, label %55

49:                                               ; preds = %43
  %50 = load i32, ptr %14, align 4, !tbaa !3
  %51 = load i32, ptr %9, align 4, !tbaa !3
  %52 = sub i32 %50, %51
  %53 = load i32, ptr %13, align 4, !tbaa !3
  %54 = sub i32 %53, %52
  store i32 %54, ptr %13, align 4, !tbaa !3
  br label %56

55:                                               ; preds = %43
  store i32 0, ptr %13, align 4, !tbaa !3
  br label %56

56:                                               ; preds = %55, %49
  %57 = load i32, ptr %9, align 4, !tbaa !3
  store i32 %57, ptr %14, align 4, !tbaa !3
  br label %79

58:                                               ; preds = %35
  %59 = load i32, ptr %14, align 4, !tbaa !3
  %60 = load i32, ptr %9, align 4, !tbaa !3
  %61 = icmp ult i32 %59, %60
  br i1 %61, label %62, label %78

62:                                               ; preds = %58
  call void @llvm.lifetime.start.p0(i64 4, ptr %15) #3
  %63 = load i32, ptr %14, align 4, !tbaa !3
  store i32 %63, ptr %15, align 4, !tbaa !3
  br label %64

64:                                               ; preds = %74, %62
  %65 = load i32, ptr %15, align 4, !tbaa !3
  %66 = load i32, ptr %9, align 4, !tbaa !3
  %67 = icmp ult i32 %65, %66
  br i1 %67, label %69, label %68

68:                                               ; preds = %64
  call void @llvm.lifetime.end.p0(i64 4, ptr %15) #3
  br label %77

69:                                               ; preds = %64
  %70 = load ptr, ptr %10, align 8, !tbaa !7
  %71 = load i32, ptr %15, align 4, !tbaa !3
  %72 = zext i32 %71 to i64
  %73 = getelementptr inbounds nuw i32, ptr %70, i64 %72
  store i32 0, ptr %73, align 4, !tbaa !3
  br label %74

74:                                               ; preds = %69
  %75 = load i32, ptr %15, align 4, !tbaa !3
  %76 = add i32 %75, 1
  store i32 %76, ptr %15, align 4, !tbaa !3
  br label %64, !llvm.loop !18

77:                                               ; preds = %68
  br label %78

78:                                               ; preds = %77, %58
  br label %79

79:                                               ; preds = %78, %56
  br label %80

80:                                               ; preds = %83, %79
  %81 = load i32, ptr %13, align 4, !tbaa !3
  %82 = icmp ugt i32 %81, 0
  br i1 %82, label %83, label %97

83:                                               ; preds = %80
  %84 = load i32, ptr %13, align 4, !tbaa !3
  %85 = add i32 %84, -1
  store i32 %85, ptr %13, align 4, !tbaa !3
  %86 = load i32, ptr %14, align 4, !tbaa !3
  %87 = add i32 %86, -1
  store i32 %87, ptr %14, align 4, !tbaa !3
  %88 = load ptr, ptr %7, align 8, !tbaa !7
  %89 = load i32, ptr %13, align 4, !tbaa !3
  %90 = zext i32 %89 to i64
  %91 = getelementptr inbounds nuw i32, ptr %88, i64 %90
  %92 = load i32, ptr %91, align 4, !tbaa !3
  %93 = load ptr, ptr %10, align 8, !tbaa !7
  %94 = load i32, ptr %14, align 4, !tbaa !3
  %95 = zext i32 %94 to i64
  %96 = getelementptr inbounds nuw i32, ptr %93, i64 %95
  store i32 %92, ptr %96, align 4, !tbaa !3
  br label %80, !llvm.loop !19

97:                                               ; preds = %80
  br label %98

98:                                               ; preds = %101, %97
  %99 = load i32, ptr %14, align 4, !tbaa !3
  %100 = icmp ugt i32 %99, 0
  br i1 %100, label %101, label %108

101:                                              ; preds = %98
  %102 = load i32, ptr %14, align 4, !tbaa !3
  %103 = add i32 %102, -1
  store i32 %103, ptr %14, align 4, !tbaa !3
  %104 = load ptr, ptr %10, align 8, !tbaa !7
  %105 = load i32, ptr %14, align 4, !tbaa !3
  %106 = zext i32 %105 to i64
  %107 = getelementptr inbounds nuw i32, ptr %104, i64 %106
  store i32 0, ptr %107, align 4, !tbaa !3
  br label %98, !llvm.loop !20

108:                                              ; preds = %98
  %109 = load i32, ptr %12, align 4, !tbaa !3
  %110 = icmp ugt i32 %109, 0
  br i1 %110, label %111, label %149

111:                                              ; preds = %108
  call void @llvm.lifetime.start.p0(i64 4, ptr %16) #3
  %112 = load i32, ptr %12, align 4, !tbaa !3
  %113 = zext i32 %112 to i64
  %114 = sub i64 32, %113
  %115 = trunc i64 %114 to i32
  store i32 %115, ptr %16, align 4, !tbaa !3
  call void @llvm.lifetime.start.p0(i64 4, ptr %17) #3
  store i32 0, ptr %17, align 4, !tbaa !3
  call void @llvm.lifetime.start.p0(i64 4, ptr %18) #3
  %116 = load i32, ptr %11, align 4, !tbaa !3
  store i32 %116, ptr %18, align 4, !tbaa !3
  br label %117

117:                                              ; preds = %145, %111
  %118 = load i32, ptr %18, align 4, !tbaa !3
  %119 = load i32, ptr %9, align 4, !tbaa !3
  %120 = icmp ult i32 %118, %119
  br i1 %120, label %122, label %121

121:                                              ; preds = %117
  call void @llvm.lifetime.end.p0(i64 4, ptr %18) #3
  br label %148

122:                                              ; preds = %117
  call void @llvm.lifetime.start.p0(i64 4, ptr %19) #3
  %123 = load ptr, ptr %10, align 8, !tbaa !7
  %124 = load i32, ptr %18, align 4, !tbaa !3
  %125 = zext i32 %124 to i64
  %126 = getelementptr inbounds nuw i32, ptr %123, i64 %125
  %127 = load i32, ptr %126, align 4, !tbaa !3
  %128 = load i32, ptr %16, align 4, !tbaa !3
  %129 = lshr i32 %127, %128
  store i32 %129, ptr %19, align 4, !tbaa !3
  %130 = load i32, ptr %12, align 4, !tbaa !3
  %131 = load ptr, ptr %10, align 8, !tbaa !7
  %132 = load i32, ptr %18, align 4, !tbaa !3
  %133 = zext i32 %132 to i64
  %134 = getelementptr inbounds nuw i32, ptr %131, i64 %133
  %135 = load i32, ptr %134, align 4, !tbaa !3
  %136 = shl i32 %135, %130
  store i32 %136, ptr %134, align 4, !tbaa !3
  %137 = load i32, ptr %17, align 4, !tbaa !3
  %138 = load ptr, ptr %10, align 8, !tbaa !7
  %139 = load i32, ptr %18, align 4, !tbaa !3
  %140 = zext i32 %139 to i64
  %141 = getelementptr inbounds nuw i32, ptr %138, i64 %140
  %142 = load i32, ptr %141, align 4, !tbaa !3
  %143 = or i32 %142, %137
  store i32 %143, ptr %141, align 4, !tbaa !3
  %144 = load i32, ptr %19, align 4, !tbaa !3
  store i32 %144, ptr %17, align 4, !tbaa !3
  call void @llvm.lifetime.end.p0(i64 4, ptr %19) #3
  br label %145

145:                                              ; preds = %122
  %146 = load i32, ptr %18, align 4, !tbaa !3
  %147 = add i32 %146, 1
  store i32 %147, ptr %18, align 4, !tbaa !3
  br label %117, !llvm.loop !21

148:                                              ; preds = %121
  call void @llvm.lifetime.end.p0(i64 4, ptr %17) #3
  call void @llvm.lifetime.end.p0(i64 4, ptr %16) #3
  br label %149

149:                                              ; preds = %148, %108
  call void @llvm.lifetime.end.p0(i64 4, ptr %14) #3
  call void @llvm.lifetime.end.p0(i64 4, ptr %13) #3
  br label %228

150:                                              ; preds = %5
  call void @llvm.lifetime.start.p0(i64 4, ptr %20) #3
  %151 = load i32, ptr %12, align 4, !tbaa !3
  %152 = zext i32 %151 to i64
  %153 = sub i64 32, %152
  %154 = trunc i64 %153 to i32
  store i32 %154, ptr %20, align 4, !tbaa !3
  call void @llvm.lifetime.start.p0(i64 4, ptr %21) #3
  store i32 0, ptr %21, align 4, !tbaa !3
  %155 = load i32, ptr %6, align 4, !tbaa !3
  %156 = load i32, ptr %9, align 4, !tbaa !3
  %157 = icmp ugt i32 %155, %156
  br i1 %157, label %158, label %160

158:                                              ; preds = %150
  %159 = load i32, ptr %9, align 4, !tbaa !3
  store i32 %159, ptr %6, align 4, !tbaa !3
  br label %160

160:                                              ; preds = %158, %150
  call void @llvm.lifetime.start.p0(i64 4, ptr %22) #3
  store i32 0, ptr %22, align 4, !tbaa !3
  br label %161

161:                                              ; preds = %198, %160
  %162 = load i32, ptr %22, align 4, !tbaa !3
  %163 = load i32, ptr %6, align 4, !tbaa !3
  %164 = icmp ult i32 %162, %163
  br i1 %164, label %166, label %165

165:                                              ; preds = %161
  call void @llvm.lifetime.end.p0(i64 4, ptr %22) #3
  br label %201

166:                                              ; preds = %161
  call void @llvm.lifetime.start.p0(i64 4, ptr %23) #3
  %167 = load ptr, ptr %7, align 8, !tbaa !7
  %168 = load i32, ptr %22, align 4, !tbaa !3
  %169 = zext i32 %168 to i64
  %170 = getelementptr inbounds nuw i32, ptr %167, i64 %169
  %171 = load i32, ptr %170, align 4, !tbaa !3
  %172 = load i32, ptr %20, align 4, !tbaa !3
  %173 = lshr i32 %171, %172
  store i32 %173, ptr %23, align 4, !tbaa !3
  %174 = load ptr, ptr %7, align 8, !tbaa !7
  %175 = load i32, ptr %22, align 4, !tbaa !3
  %176 = zext i32 %175 to i64
  %177 = getelementptr inbounds nuw i32, ptr %174, i64 %176
  %178 = load i32, ptr %177, align 4, !tbaa !3
  %179 = load ptr, ptr %10, align 8, !tbaa !7
  %180 = load i32, ptr %22, align 4, !tbaa !3
  %181 = zext i32 %180 to i64
  %182 = getelementptr inbounds nuw i32, ptr %179, i64 %181
  store i32 %178, ptr %182, align 4, !tbaa !3
  %183 = load i32, ptr %12, align 4, !tbaa !3
  %184 = load ptr, ptr %10, align 8, !tbaa !7
  %185 = load i32, ptr %22, align 4, !tbaa !3
  %186 = zext i32 %185 to i64
  %187 = getelementptr inbounds nuw i32, ptr %184, i64 %186
  %188 = load i32, ptr %187, align 4, !tbaa !3
  %189 = shl i32 %188, %183
  store i32 %189, ptr %187, align 4, !tbaa !3
  %190 = load i32, ptr %21, align 4, !tbaa !3
  %191 = load ptr, ptr %10, align 8, !tbaa !7
  %192 = load i32, ptr %22, align 4, !tbaa !3
  %193 = zext i32 %192 to i64
  %194 = getelementptr inbounds nuw i32, ptr %191, i64 %193
  %195 = load i32, ptr %194, align 4, !tbaa !3
  %196 = or i32 %195, %190
  store i32 %196, ptr %194, align 4, !tbaa !3
  %197 = load i32, ptr %23, align 4, !tbaa !3
  store i32 %197, ptr %21, align 4, !tbaa !3
  call void @llvm.lifetime.end.p0(i64 4, ptr %23) #3
  br label %198

198:                                              ; preds = %166
  %199 = load i32, ptr %22, align 4, !tbaa !3
  %200 = add i32 %199, 1
  store i32 %200, ptr %22, align 4, !tbaa !3
  br label %161, !llvm.loop !22

201:                                              ; preds = %165
  %202 = load i32, ptr %9, align 4, !tbaa !3
  %203 = load i32, ptr %6, align 4, !tbaa !3
  %204 = icmp ugt i32 %202, %203
  br i1 %204, label %205, label %227

205:                                              ; preds = %201
  %206 = load i32, ptr %21, align 4, !tbaa !3
  %207 = load ptr, ptr %10, align 8, !tbaa !7
  %208 = load i32, ptr %6, align 4, !tbaa !3
  %209 = zext i32 %208 to i64
  %210 = getelementptr inbounds nuw i32, ptr %207, i64 %209
  store i32 %206, ptr %210, align 4, !tbaa !3
  call void @llvm.lifetime.start.p0(i64 4, ptr %24) #3
  %211 = load i32, ptr %6, align 4, !tbaa !3
  %212 = add i32 %211, 1
  store i32 %212, ptr %24, align 4, !tbaa !3
  br label %213

213:                                              ; preds = %223, %205
  %214 = load i32, ptr %24, align 4, !tbaa !3
  %215 = load i32, ptr %9, align 4, !tbaa !3
  %216 = icmp ult i32 %214, %215
  br i1 %216, label %218, label %217

217:                                              ; preds = %213
  call void @llvm.lifetime.end.p0(i64 4, ptr %24) #3
  br label %226

218:                                              ; preds = %213
  %219 = load ptr, ptr %10, align 8, !tbaa !7
  %220 = load i32, ptr %24, align 4, !tbaa !3
  %221 = zext i32 %220 to i64
  %222 = getelementptr inbounds nuw i32, ptr %219, i64 %221
  store i32 0, ptr %222, align 4, !tbaa !3
  br label %223

223:                                              ; preds = %218
  %224 = load i32, ptr %24, align 4, !tbaa !3
  %225 = add i32 %224, 1
  store i32 %225, ptr %24, align 4, !tbaa !3
  br label %213, !llvm.loop !23

226:                                              ; preds = %217
  br label %227

227:                                              ; preds = %226, %201
  call void @llvm.lifetime.end.p0(i64 4, ptr %21) #3
  call void @llvm.lifetime.end.p0(i64 4, ptr %20) #3
  br label %228

228:                                              ; preds = %227, %149
  call void @llvm.lifetime.end.p0(i64 4, ptr %12) #3
  call void @llvm.lifetime.end.p0(i64 4, ptr %11) #3
  ret void
}