; Function Attrs: mustprogress nofree norecurse nosync nounwind memory(argmem: readwrite) uwtable
define hidden void @_Z3shljPKjjjPj(i32 noundef %0, ptr noundef readonly captures(none) %1, i32 noundef %2, i32 noundef %3, ptr noundef captures(none) %4) local_unnamed_addr #6 {
  %6 = lshr i32 %2, 5
  %7 = and i32 %2, 31
  %.not = icmp ult i32 %2, 32
  br i1 %.not, label %43, label %8

8:                                                ; preds = %5
  %9 = add i32 %6, %0
  %10 = icmp ugt i32 %9, %3
  br i1 %10, label %11, label %13

11:                                               ; preds = %8
  %12 = sub nuw i32 %9, %3
  %.084 = tail call i32 @llvm.usub.sat.i32(i32 %0, i32 %12)
  br label %.loopexit107

13:                                               ; preds = %8
  %14 = icmp ult i32 %9, %3
  br i1 %14, label %.preheader106.preheader, label %.loopexit107

.preheader106.preheader:                          ; preds = %13
  %15 = zext i32 %9 to i64
  %16 = shl nuw nsw i64 %15, 2
  %scevgep = getelementptr i8, ptr %4, i64 %16
  %17 = xor i32 %0, -1
  %18 = add i32 %3, %17
  %19 = sub i32 %18, %6
  %20 = zext i32 %19 to i64
  %21 = shl nuw nsw i64 %20, 2
  %22 = add nuw nsw i64 %21, 4
  tail call void @llvm.memset.p0.i64(ptr noundef nonnull align 4 dereferenceable(1) %scevgep, i8 0, i64 %22, i1 false), !tbaa !3
  br label %.loopexit107

.loopexit107:                                     ; preds = %.preheader106.preheader, %13, %11
  %.085 = phi i32 [ %3, %11 ], [ %9, %13 ], [ %9, %.preheader106.preheader ]
  %.1 = phi i32 [ %.084, %11 ], [ %0, %13 ], [ %0, %.preheader106.preheader ]
  %.not101109 = icmp eq i32 %.1, 0
  br i1 %.not101109, label %.preheader, label %.lr.ph.preheader

.lr.ph.preheader:                                 ; preds = %.loopexit107
  %23 = zext i32 %.1 to i64
  br label %.lr.ph

.preheader:                                       ; preds = %.lr.ph, %.loopexit107
  %.186.lcssa = phi i32 [ %.085, %.loopexit107 ], [ %27, %.lr.ph ]
  %.not102112 = icmp eq i32 %.186.lcssa, 0
  br i1 %.not102112, label %._crit_edge, label %.lr.ph114.preheader

.lr.ph114.preheader:                              ; preds = %.preheader
  %24 = zext i32 %.186.lcssa to i64
  %25 = shl nuw nsw i64 %24, 2
  tail call void @llvm.memset.p0.i64(ptr align 4 %4, i8 0, i64 %25, i1 false), !tbaa !3
  br label %._crit_edge

.lr.ph:                                           ; preds = %.lr.ph.preheader, %.lr.ph
  %indvars.iv = phi i64 [ %23, %.lr.ph.preheader ], [ %26, %.lr.ph ]
  %.186110 = phi i32 [ %.085, %.lr.ph.preheader ], [ %27, %.lr.ph ]
  %26 = add nsw i64 %indvars.iv, -1
  %27 = add i32 %.186110, -1
  %28 = getelementptr inbounds nuw i32, ptr %1, i64 %26
  %29 = load i32, ptr %28, align 4, !tbaa !3
  %30 = zext i32 %27 to i64
  %31 = getelementptr inbounds nuw i32, ptr %4, i64 %30
  store i32 %29, ptr %31, align 4, !tbaa !3
  %.not101.wide = icmp eq i64 %26, 0
  br i1 %.not101.wide, label %.preheader, label %.lr.ph, !llvm.loop !13

._crit_edge:                                      ; preds = %.lr.ph114.preheader, %.preheader
  %.not103 = icmp eq i32 %7, 0
  br i1 %.not103, label %.loopexit, label %32

32:                                               ; preds = %._crit_edge
  %narrow104 = sub nuw nsw i32 32, %7
  %33 = icmp ult i32 %6, %3
  br i1 %33, label %.lr.ph118.preheader, label %.loopexit

.lr.ph118.preheader:                              ; preds = %32
  %34 = lshr i32 %2, 5
  %35 = zext nneg i32 %34 to i64
  %36 = add i32 %3, %34
  %37 = sub i32 %36, %6
  br label %.lr.ph118

.lr.ph118:                                        ; preds = %.lr.ph118.preheader, %.lr.ph118
  %indvars.iv137 = phi i64 [ %35, %.lr.ph118.preheader ], [ %indvars.iv.next138, %.lr.ph118 ]
  %.089115 = phi i32 [ 0, %.lr.ph118.preheader ], [ %40, %.lr.ph118 ]
  %38 = getelementptr inbounds nuw i32, ptr %4, i64 %indvars.iv137
  %39 = load i32, ptr %38, align 4, !tbaa !3
  %40 = lshr i32 %39, %narrow104
  %41 = shl i32 %39, %7
  %42 = or i32 %41, %.089115
  store i32 %42, ptr %38, align 4, !tbaa !3
  %indvars.iv.next138 = add nuw nsw i64 %indvars.iv137, 1
  %lftr.wideiv = trunc i64 %indvars.iv.next138 to i32
  %exitcond.not = icmp eq i32 %37, %lftr.wideiv
  br i1 %exitcond.not, label %.loopexit, label %.lr.ph118, !llvm.loop !14

43:                                               ; preds = %5
  %narrow = sub nuw nsw i32 32, %7
  %spec.select = tail call i32 @llvm.umin.i32(i32 %0, i32 %3)
  %.not129 = icmp eq i32 %spec.select, 0
  br i1 %.not129, label %._crit_edge123, label %.lr.ph122.preheader

.lr.ph122.preheader:                              ; preds = %43
  %wide.trip.count = zext i32 %spec.select to i64
  br label %.lr.ph122

._crit_edge123:                                   ; preds = %.lr.ph122, %43
  %.083.lcssa = phi i32 [ 0, %43 ], [ %47, %.lr.ph122 ]
  %44 = icmp ult i32 %0, %3
  br i1 %44, label %51, label %.loopexit

.lr.ph122:                                        ; preds = %.lr.ph122.preheader, %.lr.ph122
  %indvars.iv139 = phi i64 [ 0, %.lr.ph122.preheader ], [ %indvars.iv.next140, %.lr.ph122 ]
  %.083119 = phi i32 [ 0, %.lr.ph122.preheader ], [ %47, %.lr.ph122 ]
  %45 = getelementptr inbounds nuw i32, ptr %1, i64 %indvars.iv139
  %46 = load i32, ptr %45, align 4, !tbaa !3
  %47 = lshr i32 %46, %narrow
  %48 = getelementptr inbounds nuw i32, ptr %4, i64 %indvars.iv139
  %49 = shl i32 %46, %7
  %50 = or i32 %49, %.083119
  store i32 %50, ptr %48, align 4, !tbaa !3
  %indvars.iv.next140 = add nuw nsw i64 %indvars.iv139, 1
  %exitcond142.not = icmp eq i64 %indvars.iv.next140, %wide.trip.count
  br i1 %exitcond142.not, label %._crit_edge123, label %.lr.ph122, !llvm.loop !15

51:                                               ; preds = %._crit_edge123
  %52 = zext i32 %spec.select to i64
  %53 = getelementptr inbounds nuw i32, ptr %4, i64 %52
  store i32 %.083.lcssa, ptr %53, align 4, !tbaa !3
  %.0125 = add i32 %spec.select, 1
  %54 = icmp ult i32 %.0125, %3
  br i1 %54, label %.lr.ph128.preheader, label %.loopexit

.lr.ph128.preheader:                              ; preds = %51
  %55 = tail call i32 @llvm.umin.i32(i32 %3, i32 %0)
  %umin = zext i32 %55 to i64
  %56 = shl nuw nsw i64 %umin, 2
  %57 = getelementptr i8, ptr %4, i64 %56
  %scevgep143 = getelementptr i8, ptr %57, i64 4
  %58 = add i32 %3, -2
  %59 = sub i32 %58, %spec.select
  %60 = zext i32 %59 to i64
  %61 = shl nuw nsw i64 %60, 2
  %62 = add nuw nsw i64 %61, 4
  tail call void @llvm.memset.p0.i64(ptr noundef nonnull align 4 dereferenceable(1) %scevgep143, i8 0, i64 %62, i1 false), !tbaa !3
  br label %.loopexit

.loopexit:                                        ; preds = %.lr.ph118, %.lr.ph128.preheader, %32, %51, %._crit_edge123, %._crit_edge
  ret void
}